target datalayout = "e-m:e-p270:32:32-p271:32:32-p272:64:64-i64:64-i128:128-f80:128-n8:16:32:64-S128"
target triple = "x86_64-pc-linux-gnu"

%"class.std::__cxx11::basic_string" = type { %"struct.std::__cxx11::basic_string<char>::_Alloc_hider", i64, %union.anon }
%"struct.std::__cxx11::basic_string<char>::_Alloc_hider" = type { ptr }
%union.anon = type { i64, [8 x i8] }
%class.cmFindCommon = type { %"class.std::vector", %"class.std::vector", %"class.std::__cxx11::basic_string", i32, i8, i8, i8, i8, i8, i8, i8, i8, i32, %"class.std::vector", %"class.std::map", %"class.std::vector.6", %"class.std::map.11", %"class.std::map.17", %"class.std::vector", %"class.std::set", i8, i8, i8, i8, i8, i8, ptr, ptr }
%"class.std::map" = type { %"class.std::_Rb_tree" }
%"class.std::_Rb_tree" = type { %"struct.std::_Rb_tree<cmFindCommon::PathGroup, std::pair<const cmFindCommon::PathGroup, std::vector<cmFindCommon::PathLabel>>, std::_Select1st<std::pair<const cmFindCommon::PathGroup, std::vector<cmFindCommon::PathLabel>>>, std::less<cmFindCommon::PathGroup>>::_Rb_tree_impl" }
%"struct.std::_Rb_tree<cmFindCommon::PathGroup, std::pair<const cmFindCommon::PathGroup, std::vector<cmFindCommon::PathLabel>>, std::_Select1st<std::pair<const cmFindCommon::PathGroup, std::vector<cmFindCommon::PathLabel>>>, std::less<cmFindCommon::PathGroup>>::_Rb_tree_impl" = type { [8 x i8], %"struct.std::_Rb_tree_header" }
%"struct.std::_Rb_tree_header" = type { %"struct.std::_Rb_tree_node_base", i64 }
%"struct.std::_Rb_tree_node_base" = type { i32, ptr, ptr, ptr }
%"class.std::vector.6" = type { %"struct.std::_Vector_base.7" }
%"struct.std::_Vector_base.7" = type { %"struct.std::_Vector_base<cmFindCommon::PathGroup, std::allocator<cmFindCommon::PathGroup>>::_Vector_impl" }
%"struct.std::_Vector_base<cmFindCommon::PathGroup, std::allocator<cmFindCommon::PathGroup>>::_Vector_impl" = type { %"struct.std::_Vector_base<cmFindCommon::PathGroup, std::allocator<cmFindCommon::PathGroup>>::_Vector_impl_data" }
%"struct.std::_Vector_base<cmFindCommon::PathGroup, std::allocator<cmFindCommon::PathGroup>>::_Vector_impl_data" = type { ptr, ptr, ptr }
%"class.std::map.11" = type { %"class.std::_Rb_tree.12" }
%"class.std::_Rb_tree.12" = type { %"struct.std::_Rb_tree<std::__cxx11::basic_string<char>, std::pair<const std::__cxx11::basic_string<char>, cmFindCommon::PathLabel>, std::_Select1st<std::pair<const std::__cxx11::basic_string<char>, cmFindCommon::PathLabel>>, std::less<std::__cxx11::basic_string<char>>>::_Rb_tree_impl" }
%"struct.std::_Rb_tree<std::__cxx11::basic_string<char>, std::pair<const std::__cxx11::basic_string<char>, cmFindCommon::PathLabel>, std::_Select1st<std::pair<const std::__cxx11::basic_string<char>, cmFindCommon::PathLabel>>, std::less<std::__cxx11::basic_string<char>>>::_Rb_tree_impl" = type { [8 x i8], %"struct.std::_Rb_tree_header" }
%"class.std::map.17" = type { %"class.std::_Rb_tree.18" }
%"class.std::_Rb_tree.18" = type { %"struct.std::_Rb_tree<cmFindCommon::PathLabel, std::pair<const cmFindCommon::PathLabel, cmSearchPath>, std::_Select1st<std::pair<const cmFindCommon::PathLabel, cmSearchPath>>, std::less<cmFindCommon::PathLabel>>::_Rb_tree_impl" }
%"struct.std::_Rb_tree<cmFindCommon::PathLabel, std::pair<const cmFindCommon::PathLabel, cmSearchPath>, std::_Select1st<std::pair<const cmFindCommon::PathLabel, cmSearchPath>>, std::less<cmFindCommon::PathLabel>>::_Rb_tree_impl" = type { [8 x i8], %"struct.std::_Rb_tree_header" }
%"class.std::vector" = type { %"struct.std::_Vector_base" }
%"struct.std::_Vector_base" = type { %"struct.std::_Vector_base<std::__cxx11::basic_string<char>, std::allocator<std::__cxx11::basic_string<char>>>::_Vector_impl" }
%"struct.std::_Vector_base<std::__cxx11::basic_string<char>, std::allocator<std::__cxx11::basic_string<char>>>::_Vector_impl" = type { %"struct.std::_Vector_base<std::__cxx11::basic_string<char>, std::allocator<std::__cxx11::basic_string<char>>>::_Vector_impl_data" }
%"struct.std::_Vector_base<std::__cxx11::basic_string<char>, std::allocator<std::__cxx11::basic_string<char>>>::_Vector_impl_data" = type { ptr, ptr, ptr }
%"class.std::set" = type { %"class.std::_Rb_tree.23" }
%"class.std::_Rb_tree.23" = type { %"struct.std::_Rb_tree<cmSearchPath::PathWithPrefix, cmSearchPath::PathWithPrefix, std::_Identity<cmSearchPath::PathWithPrefix>, std::less<cmSearchPath::PathWithPrefix>>::_Rb_tree_impl" }
%"struct.std::_Rb_tree<cmSearchPath::PathWithPrefix, cmSearchPath::PathWithPrefix, std::_Identity<cmSearchPath::PathWithPrefix>, std::less<cmSearchPath::PathWithPrefix>>::_Rb_tree_impl" = type { [8 x i8], %"struct.std::_Rb_tree_header" }

@.str.45 = private unnamed_addr constant [16 x i8] c"NO_DEFAULT_PATH\00", align 1
@.str.46 = private unnamed_addr constant [21 x i8] c"NO_PACKAGE_ROOT_PATH\00", align 1
@.str.47 = private unnamed_addr constant [14 x i8] c"NO_CMAKE_PATH\00", align 1
@.str.48 = private unnamed_addr constant [26 x i8] c"NO_CMAKE_ENVIRONMENT_PATH\00", align 1
@.str.49 = private unnamed_addr constant [27 x i8] c"NO_SYSTEM_ENVIRONMENT_PATH\00", align 1
@.str.50 = private unnamed_addr constant [21 x i8] c"NO_CMAKE_SYSTEM_PATH\00", align 1
@.str.51 = private unnamed_addr constant [24 x i8] c"NO_CMAKE_INSTALL_PREFIX\00", align 1
@.str.52 = private unnamed_addr constant [24 x i8] c"NO_CMAKE_FIND_ROOT_PATH\00", align 1
@.str.53 = private unnamed_addr constant [26 x i8] c"ONLY_CMAKE_FIND_ROOT_PATH\00", align 1
@.str.54 = private unnamed_addr constant [26 x i8] c"CMAKE_FIND_ROOT_PATH_BOTH\00", align 1

; Function Attrs: inlinehint mustprogress nounwind uwtable
define linkonce_odr dso_local noundef zeroext i1 @_ZSteqIcSt11char_traitsIcESaIcEEbRKNSt7__cxx1112basic_stringIT_T0_T1_EEPKS5_(ptr noundef nonnull align 8 dereferenceable(32) %0, ptr noundef %1) #7 comdat {
  %3 = alloca ptr, align 8
  %4 = alloca ptr, align 8
  store ptr %0, ptr %3, align 8, !tbaa !18
  store ptr %1, ptr %4, align 8, !tbaa !22
  %5 = load ptr, ptr %3, align 8, !tbaa !18
  %6 = load ptr, ptr %4, align 8, !tbaa !22
  %7 = call noundef i32 @_ZNKSt7__cxx1112basic_stringIcSt11char_traitsIcESaIcEE7compareEPKc(ptr noundef nonnull align 8 dereferenceable(32) %5, ptr noundef %6) #3
  %8 = icmp eq i32 %7, 0
  ret i1 %8
}

; Function Attrs: mustprogress uwtable
define dso_local noundef zeroext i1 @_ZN12cmFindCommon19CheckCommonArgumentERKNSt7__cxx1112basic_stringIcSt11char_traitsIcESaIcEEE(ptr noundef nonnull align 8 dereferenceable(384) %0, ptr noundef nonnull align 8 dereferenceable(32) %1) #5 align 2 {
  %3 = alloca i1, align 1
  %4 = alloca ptr, align 8
  %5 = alloca ptr, align 8
  store ptr %0, ptr %4, align 8, !tbaa !30
  store ptr %1, ptr %5, align 8, !tbaa !18
  %6 = load ptr, ptr %4, align 8
  %7 = load ptr, ptr %5, align 8, !tbaa !18
  %8 = call noundef zeroext i1 @_ZSteqIcSt11char_traitsIcESaIcEEbRKNSt7__cxx1112basic_stringIT_T0_T1_EEPKS5_(ptr noundef nonnull align 8 dereferenceable(32) %7, ptr noundef @.str.45)
  br i1 %8, label %9, label %11

9:                                                ; preds = %2
  %10 = getelementptr inbounds nuw %class.cmFindCommon, ptr %6, i32 0, i32 5
  store i8 1, ptr %10, align 1, !tbaa !76
  store i1 true, ptr %3, align 1
  br label %57

11:                                               ; preds = %2
  %12 = load ptr, ptr %5, align 8, !tbaa !18
  %13 = call noundef zeroext i1 @_ZSteqIcSt11char_traitsIcESaIcEEbRKNSt7__cxx1112basic_stringIT_T0_T1_EEPKS5_(ptr noundef nonnull align 8 dereferenceable(32) %12, ptr noundef @.str.46)
  br i1 %13, label %14, label %16

14:                                               ; preds = %11
  %15 = getelementptr inbounds nuw %class.cmFindCommon, ptr %6, i32 0, i32 6
  store i8 1, ptr %15, align 2, !tbaa !77
  store i1 true, ptr %3, align 1
  br label %57

16:                                               ; preds = %11
  %17 = load ptr, ptr %5, align 8, !tbaa !18
  %18 = call noundef zeroext i1 @_ZSteqIcSt11char_traitsIcESaIcEEbRKNSt7__cxx1112basic_stringIT_T0_T1_EEPKS5_(ptr noundef nonnull align 8 dereferenceable(32) %17, ptr noundef @.str.47)
  br i1 %18, label %19, label %21

19:                                               ; preds = %16
  %20 = getelementptr inbounds nuw %class.cmFindCommon, ptr %6, i32 0, i32 7
  store i8 1, ptr %20, align 1, !tbaa !78
  store i1 true, ptr %3, align 1
  br label %57

21:                                               ; preds = %16
  %22 = load ptr, ptr %5, align 8, !tbaa !18
  %23 = call noundef zeroext i1 @_ZSteqIcSt11char_traitsIcESaIcEEbRKNSt7__cxx1112basic_stringIT_T0_T1_EEPKS5_(ptr noundef nonnull align 8 dereferenceable(32) %22, ptr noundef @.str.48)
  br i1 %23, label %24, label %26

24:                                               ; preds = %21
  %25 = getelementptr inbounds nuw %class.cmFindCommon, ptr %6, i32 0, i32 8
  store i8 1, ptr %25, align 8, !tbaa !79
  store i1 true, ptr %3, align 1
  br label %57

26:                                               ; preds = %21
  %27 = load ptr, ptr %5, align 8, !tbaa !18
  %28 = call noundef zeroext i1 @_ZSteqIcSt11char_traitsIcESaIcEEbRKNSt7__cxx1112basic_stringIT_T0_T1_EEPKS5_(ptr noundef nonnull align 8 dereferenceable(32) %27, ptr noundef @.str.49)
  br i1 %28, label %29, label %31

29:                                               ; preds = %26
  %30 = getelementptr inbounds nuw %class.cmFindCommon, ptr %6, i32 0, i32 9
  store i8 1, ptr %30, align 1, !tbaa !80
  store i1 true, ptr %3, align 1
  br label %57

31:                                               ; preds = %26
  %32 = load ptr, ptr %5, align 8, !tbaa !18
  %33 = call noundef zeroext i1 @_ZSteqIcSt11char_traitsIcESaIcEEbRKNSt7__cxx1112basic_stringIT_T0_T1_EEPKS5_(ptr noundef nonnull align 8 dereferenceable(32) %32, ptr noundef @.str.50)
  br i1 %33, label %34, label %36

34:                                               ; preds = %31
  %35 = getelementptr inbounds nuw %class.cmFindCommon, ptr %6, i32 0, i32 10
  store i8 1, ptr %35, align 2, !tbaa !81
  store i1 true, ptr %3, align 1
  br label %57

36:                                               ; preds = %31
  %37 = load ptr, ptr %5, align 8, !tbaa !18
  %38 = call noundef zeroext i1 @_ZSteqIcSt11char_traitsIcESaIcEEbRKNSt7__cxx1112basic_stringIT_T0_T1_EEPKS5_(ptr noundef nonnull align 8 dereferenceable(32) %37, ptr noundef @.str.51)
  br i1 %38, label %39, label %41

39:                                               ; preds = %36
  %40 = getelementptr inbounds nuw %class.cmFindCommon, ptr %6, i32 0, i32 11
  store i8 1, ptr %40, align 1, !tbaa !82
  store i1 true, ptr %3, align 1
  br label %57

41:                                               ; preds = %36
  %42 = load ptr, ptr %5, align 8, !tbaa !18
  %43 = call noundef zeroext i1 @_ZSteqIcSt11char_traitsIcESaIcEEbRKNSt7__cxx1112basic_stringIT_T0_T1_EEPKS5_(ptr noundef nonnull align 8 dereferenceable(32) %42, ptr noundef @.str.52)
  br i1 %43, label %44, label %46

44:                                               ; preds = %41
  %45 = getelementptr inbounds nuw %class.cmFindCommon, ptr %6, i32 0, i32 3
  store i32 0, ptr %45, align 8, !tbaa !75
  store i1 true, ptr %3, align 1
  br label %57

46:                                               ; preds = %41
  %47 = load ptr, ptr %5, align 8, !tbaa !18
  %48 = call noundef zeroext i1 @_ZSteqIcSt11char_traitsIcESaIcEEbRKNSt7__cxx1112basic_stringIT_T0_T1_EEPKS5_(ptr noundef nonnull align 8 dereferenceable(32) %47, ptr noundef @.str.53)
  br i1 %48, label %49, label %51

49:                                               ; preds = %46
  %50 = getelementptr inbounds nuw %class.cmFindCommon, ptr %6, i32 0, i32 3
  store i32 1, ptr %50, align 8, !tbaa !75
  store i1 true, ptr %3, align 1
  br label %57

51:                                               ; preds = %46
  %52 = load ptr, ptr %5, align 8, !tbaa !18
  %53 = call noundef zeroext i1 @_ZSteqIcSt11char_traitsIcESaIcEEbRKNSt7__cxx1112basic_stringIT_T0_T1_EEPKS5_(ptr noundef nonnull align 8 dereferenceable(32) %52, ptr noundef @.str.54)
  br i1 %53, label %54, label %56

54:                                               ; preds = %51
  %55 = getelementptr inbounds nuw %class.cmFindCommon, ptr %6, i32 0, i32 3
  store i32 2, ptr %55, align 8, !tbaa !75
  store i1 true, ptr %3, align 1
  br label %57

56:                                               ; preds = %51
  store i1 false, ptr %3, align 1
  br label %57

57:                                               ; preds = %56, %54, %49, %44, %39, %34, %29, %24, %19, %14, %9
  %58 = load i1, ptr %3, align 1
  ret i1 %58
}