; Function Attrs: mustprogress nounwind uwtable
define dso_local noundef zeroext i1 @_ZN12cmFindCommon19CheckCommonArgumentERKNSt7__cxx1112basic_stringIcSt11char_traitsIcESaIcEEE(ptr noundef nonnull writeonly align 8 captures(none) dereferenceable(384) %0, ptr noundef nonnull align 8 dereferenceable(32) %1) local_unnamed_addr #4 align 2 {
  %3 = tail call noundef i32 @_ZNKSt7__cxx1112basic_stringIcSt11char_traitsIcESaIcEE7compareEPKc(ptr noundef nonnull align 8 dereferenceable(32) %1, ptr noundef nonnull @.str.45) #22
  %4 = icmp eq i32 %3, 0
  br i1 %4, label %5, label %7

5:                                                ; preds = %2
  %6 = getelementptr inbounds nuw i8, ptr %0, i64 85
  store i8 1, ptr %6, align 1, !tbaa !308
  br label %52

7:                                                ; preds = %2
  %8 = tail call noundef i32 @_ZNKSt7__cxx1112basic_stringIcSt11char_traitsIcESaIcEE7compareEPKc(ptr noundef nonnull align 8 dereferenceable(32) %1, ptr noundef nonnull @.str.46) #22
  %9 = icmp eq i32 %8, 0
  br i1 %9, label %10, label %12

10:                                               ; preds = %7
  %11 = getelementptr inbounds nuw i8, ptr %0, i64 86
  store i8 1, ptr %11, align 2, !tbaa !309
  br label %52

12:                                               ; preds = %7
  %13 = tail call noundef i32 @_ZNKSt7__cxx1112basic_stringIcSt11char_traitsIcESaIcEE7compareEPKc(ptr noundef nonnull align 8 dereferenceable(32) %1, ptr noundef nonnull @.str.47) #22
  %14 = icmp eq i32 %13, 0
  br i1 %14, label %15, label %17

15:                                               ; preds = %12
  %16 = getelementptr inbounds nuw i8, ptr %0, i64 87
  store i8 1, ptr %16, align 1, !tbaa !310
  br label %52

17:                                               ; preds = %12
  %18 = tail call noundef i32 @_ZNKSt7__cxx1112basic_stringIcSt11char_traitsIcESaIcEE7compareEPKc(ptr noundef nonnull align 8 dereferenceable(32) %1, ptr noundef nonnull @.str.48) #22
  %19 = icmp eq i32 %18, 0
  br i1 %19, label %20, label %22

20:                                               ; preds = %17
  %21 = getelementptr inbounds nuw i8, ptr %0, i64 88
  store i8 1, ptr %21, align 8, !tbaa !311
  br label %52

22:                                               ; preds = %17
  %23 = tail call noundef i32 @_ZNKSt7__cxx1112basic_stringIcSt11char_traitsIcESaIcEE7compareEPKc(ptr noundef nonnull align 8 dereferenceable(32) %1, ptr noundef nonnull @.str.49) #22
  %24 = icmp eq i32 %23, 0
  br i1 %24, label %25, label %27

25:                                               ; preds = %22
  %26 = getelementptr inbounds nuw i8, ptr %0, i64 89
  store i8 1, ptr %26, align 1, !tbaa !312
  br label %52

27:                                               ; preds = %22
  %28 = tail call noundef i32 @_ZNKSt7__cxx1112basic_stringIcSt11char_traitsIcESaIcEE7compareEPKc(ptr noundef nonnull align 8 dereferenceable(32) %1, ptr noundef nonnull @.str.50) #22
  %29 = icmp eq i32 %28, 0
  br i1 %29, label %30, label %32

30:                                               ; preds = %27
  %31 = getelementptr inbounds nuw i8, ptr %0, i64 90
  store i8 1, ptr %31, align 2, !tbaa !313
  br label %52

32:                                               ; preds = %27
  %33 = tail call noundef i32 @_ZNKSt7__cxx1112basic_stringIcSt11char_traitsIcESaIcEE7compareEPKc(ptr noundef nonnull align 8 dereferenceable(32) %1, ptr noundef nonnull @.str.51) #22
  %34 = icmp eq i32 %33, 0
  br i1 %34, label %35, label %37

35:                                               ; preds = %32
  %36 = getelementptr inbounds nuw i8, ptr %0, i64 91
  store i8 1, ptr %36, align 1, !tbaa !314
  br label %52

37:                                               ; preds = %32
  %38 = tail call noundef i32 @_ZNKSt7__cxx1112basic_stringIcSt11char_traitsIcESaIcEE7compareEPKc(ptr noundef nonnull align 8 dereferenceable(32) %1, ptr noundef nonnull @.str.52) #22
  %39 = icmp eq i32 %38, 0
  br i1 %39, label %40, label %42

40:                                               ; preds = %37
  %41 = getelementptr inbounds nuw i8, ptr %0, i64 80
  store i32 0, ptr %41, align 8, !tbaa !70
  br label %52

42:                                               ; preds = %37
  %43 = tail call noundef i32 @_ZNKSt7__cxx1112basic_stringIcSt11char_traitsIcESaIcEE7compareEPKc(ptr noundef nonnull align 8 dereferenceable(32) %1, ptr noundef nonnull @.str.53) #22
  %44 = icmp eq i32 %43, 0
  br i1 %44, label %45, label %47

45:                                               ; preds = %42
  %46 = getelementptr inbounds nuw i8, ptr %0, i64 80
  store i32 1, ptr %46, align 8, !tbaa !70
  br label %52

47:                                               ; preds = %42
  %48 = tail call noundef i32 @_ZNKSt7__cxx1112basic_stringIcSt11char_traitsIcESaIcEE7compareEPKc(ptr noundef nonnull align 8 dereferenceable(32) %1, ptr noundef nonnull @.str.54) #22
  %49 = icmp eq i32 %48, 0
  br i1 %49, label %50, label %52

50:                                               ; preds = %47
  %51 = getelementptr inbounds nuw i8, ptr %0, i64 80
  store i32 2, ptr %51, align 8, !tbaa !70
  br label %52

52:                                               ; preds = %47, %50, %45, %40, %35, %30, %25, %20, %15, %10, %5
  %.0 = phi i1 [ true, %5 ], [ true, %10 ], [ true, %15 ], [ true, %20 ], [ true, %25 ], [ true, %30 ], [ true, %35 ], [ true, %40 ], [ true, %45 ], [ true, %50 ], [ false, %47 ]
  ret i1 %.0
}